; ModuleID = '5/1128.c'
source_filename = "5/1128.c"
target datalayout = "e-m:e-p270:32:32-p271:32:32-p272:64:64-i64:64-f80:128-n8:16:32:64-S128"
target triple = "x86_64-pc-linux-gnu"

@.str = private unnamed_addr constant [6 x i8] c"error\00", align 1
@.str.1 = private unnamed_addr constant [4 x i8] c"yes\00", align 1
@.str.2 = private unnamed_addr constant [3 x i8] c"no\00", align 1

; Function Attrs: noinline nounwind uwtable
define dso_local i32 @main() #0 {
  %1 = alloca i32, align 4
  %2 = alloca double, align 8
  %3 = alloca double, align 8
  %4 = alloca i32, align 4
  %5 = alloca i32, align 4
  %6 = alloca i32, align 4
  %7 = alloca [500 x i8], align 16
  %8 = alloca [500 x i8], align 16
  %9 = alloca [50 x i8], align 16
  store i32 0, i32* %1, align 4
  store double 0.000000e+00, double* %3, align 8
  store i32 0, i32* %6, align 4
  %10 = getelementptr inbounds [50 x i8], [50 x i8]* %9, i64 0, i64 0
  %11 = call i32 (i8*, ...) bitcast (i32 (...)* @gets to i32 (i8*, ...)*)(i8* %10)
  %12 = getelementptr inbounds [50 x i8], [50 x i8]* %9, i64 0, i64 0
  %13 = call double @atof(i8* %12) #3
  store double %13, double* %2, align 8
  %14 = getelementptr inbounds [500 x i8], [500 x i8]* %7, i64 0, i64 0
  %15 = call i32 (i8*, ...) bitcast (i32 (...)* @gets to i32 (i8*, ...)*)(i8* %14)
  %16 = getelementptr inbounds [500 x i8], [500 x i8]* %8, i64 0, i64 0
  %17 = call i32 (i8*, ...) bitcast (i32 (...)* @gets to i32 (i8*, ...)*)(i8* %16)
  %18 = getelementptr inbounds [500 x i8], [500 x i8]* %7, i64 0, i64 0
  %19 = call i64 @strlen(i8* %18) #3
  %20 = trunc i64 %19 to i32
  store i32 %20, i32* %5, align 4
  store i32 0, i32* %4, align 4
  br label %21

21:                                               ; preds = %88, %0
  %22 = load i32, i32* %4, align 4
  %23 = load i32, i32* %5, align 4
  %24 = icmp slt i32 %22, %23
  br i1 %24, label %25, label %91

25:                                               ; preds = %21
  %26 = load i32, i32* %4, align 4
  %27 = sext i32 %26 to i64
  %28 = getelementptr inbounds [500 x i8], [500 x i8]* %7, i64 0, i64 %27
  %29 = load i8, i8* %28, align 1
  %30 = sext i8 %29 to i32
  %31 = icmp ne i32 %30, 65
  br i1 %31, label %32, label %56

32:                                               ; preds = %25
  %33 = load i32, i32* %4, align 4
  %34 = sext i32 %33 to i64
  %35 = getelementptr inbounds [500 x i8], [500 x i8]* %7, i64 0, i64 %34
  %36 = load i8, i8* %35, align 1
  %37 = sext i8 %36 to i32
  %38 = icmp ne i32 %37, 84
  br i1 %38, label %39, label %56

39:                                               ; preds = %32
  %40 = load i32, i32* %4, align 4
  %41 = sext i32 %40 to i64
  %42 = getelementptr inbounds [500 x i8], [500 x i8]* %7, i64 0, i64 %41
  %43 = load i8, i8* %42, align 1
  %44 = sext i8 %43 to i32
  %45 = icmp ne i32 %44, 67
  br i1 %45, label %46, label %56

46:                                               ; preds = %39
  %47 = load i32, i32* %4, align 4
  %48 = sext i32 %47 to i64
  %49 = getelementptr inbounds [500 x i8], [500 x i8]* %7, i64 0, i64 %48
  %50 = load i8, i8* %49, align 1
  %51 = sext i8 %50 to i32
  %52 = icmp ne i32 %51, 71
  br i1 %52, label %53, label %56

53:                                               ; preds = %46
  %54 = load i32, i32* %6, align 4
  %55 = add nsw i32 %54, 1
  store i32 %55, i32* %6, align 4
  br label %56

56:                                               ; preds = %53, %46, %39, %32, %25
  %57 = load i32, i32* %4, align 4
  %58 = sext i32 %57 to i64
  %59 = getelementptr inbounds [500 x i8], [500 x i8]* %8, i64 0, i64 %58
  %60 = load i8, i8* %59, align 1
  %61 = sext i8 %60 to i32
  %62 = icmp ne i32 %61, 65
  br i1 %62, label %63, label %87

63:                                               ; preds = %56
  %64 = load i32, i32* %4, align 4
  %65 = sext i32 %64 to i64
  %66 = getelementptr inbounds [500 x i8], [500 x i8]* %8, i64 0, i64 %65
  %67 = load i8, i8* %66, align 1
  %68 = sext i8 %67 to i32
  %69 = icmp ne i32 %68, 84
  br i1 %69, label %70, label %87

70:                                               ; preds = %63
  %71 = load i32, i32* %4, align 4
  %72 = sext i32 %71 to i64
  %73 = getelementptr inbounds [500 x i8], [500 x i8]* %8, i64 0, i64 %72
  %74 = load i8, i8* %73, align 1
  %75 = sext i8 %74 to i32
  %76 = icmp ne i32 %75, 67
  br i1 %76, label %77, label %87

77:                                               ; preds = %70
  %78 = load i32, i32* %4, align 4
  %79 = sext i32 %78 to i64
  %80 = getelementptr inbounds [500 x i8], [500 x i8]* %8, i64 0, i64 %79
  %81 = load i8, i8* %80, align 1
  %82 = sext i8 %81 to i32
  %83 = icmp ne i32 %82, 71
  br i1 %83, label %84, label %87

84:                                               ; preds = %77
  %85 = load i32, i32* %6, align 4
  %86 = add nsw i32 %85, 1
  store i32 %86, i32* %6, align 4
  br label %87

87:                                               ; preds = %84, %77, %70, %63, %56
  br label %88

88:                                               ; preds = %87
  %89 = load i32, i32* %4, align 4
  %90 = add nsw i32 %89, 1
  store i32 %90, i32* %4, align 4
  br label %21

91:                                               ; preds = %21
  %92 = load i32, i32* %6, align 4
  %93 = icmp ne i32 %92, 0
  br i1 %93, label %94, label %96

94:                                               ; preds = %91
  %95 = call i32 (i8*, ...) @printf(i8* getelementptr inbounds ([6 x i8], [6 x i8]* @.str, i64 0, i64 0))
  br label %133

96:                                               ; preds = %91
  store i32 0, i32* %4, align 4
  br label %97

97:                                               ; preds = %117, %96
  %98 = load i32, i32* %4, align 4
  %99 = load i32, i32* %5, align 4
  %100 = icmp slt i32 %98, %99
  br i1 %100, label %101, label %120

101:                                              ; preds = %97
  %102 = load i32, i32* %4, align 4
  %103 = sext i32 %102 to i64
  %104 = getelementptr inbounds [500 x i8], [500 x i8]* %7, i64 0, i64 %103
  %105 = load i8, i8* %104, align 1
  %106 = sext i8 %105 to i32
  %107 = load i32, i32* %4, align 4
  %108 = sext i32 %107 to i64
  %109 = getelementptr inbounds [500 x i8], [500 x i8]* %8, i64 0, i64 %108
  %110 = load i8, i8* %109, align 1
  %111 = sext i8 %110 to i32
  %112 = icmp eq i32 %106, %111
  br i1 %112, label %113, label %116

113:                                              ; preds = %101
  %114 = load double, double* %3, align 8
  %115 = fadd double %114, 1.000000e+00
  store double %115, double* %3, align 8
  br label %116

116:                                              ; preds = %113, %101
  br label %117

117:                                              ; preds = %116
  %118 = load i32, i32* %4, align 4
  %119 = add nsw i32 %118, 1
  store i32 %119, i32* %4, align 4
  br label %97

120:                                              ; preds = %97
  %121 = load double, double* %3, align 8
  %122 = load i32, i32* %5, align 4
  %123 = sitofp i32 %122 to double
  %124 = fdiv double %121, %123
  store double %124, double* %3, align 8
  %125 = load double, double* %3, align 8
  %126 = load double, double* %2, align 8
  %127 = fcmp ogt double %125, %126
  br i1 %127, label %128, label %130

128:                                              ; preds = %120
  %129 = call i32 (i8*, ...) @printf(i8* getelementptr inbounds ([4 x i8], [4 x i8]* @.str.1, i64 0, i64 0))
  br label %132

130:                                              ; preds = %120
  %131 = call i32 (i8*, ...) @printf(i8* getelementptr inbounds ([3 x i8], [3 x i8]* @.str.2, i64 0, i64 0))
  br label %132

132:                                              ; preds = %130, %128
  br label %133

133:                                              ; preds = %132, %94
  ret i32 0
}

declare dso_local i32 @gets(...) #1

; Function Attrs: nounwind readonly
declare dso_local double @atof(i8*) #2

; Function Attrs: nounwind readonly
declare dso_local i64 @strlen(i8*) #2

declare dso_local i32 @printf(i8*, ...) #1


!llvm.module.flags = !{!0}
!llvm.ident = !{!1}

!0 = !{i32 1, !"wchar_size", i32 4}
!1 = !{!"clang version 10.0.0-4ubuntu1 "}
